; Function Attrs: mustprogress uwtable
define noundef zeroext i1 @_ZN3gmx13TextInputFile8readLineEPNSt7__cxx1112basic_stringIcSt11char_traitsIcESaIcEEE(ptr noundef nonnull readonly align 8 captures(none) dereferenceable(16) %0, ptr noundef %1) unnamed_addr #2 align 2 {
  %3 = getelementptr inbounds nuw i8, ptr %0, i64 8
  %4 = load ptr, ptr %3, align 8, !tbaa !9
  %5 = load ptr, ptr %4, align 8, !tbaa !11
  %.not.i = icmp eq ptr %5, null
  br i1 %.not.i, label %6, label %_ZN3gmx8internal14FileStreamImpl6handleEv.exit

6:                                                ; preds = %2
  tail call void @_ZN3gmx8internal13assertHandlerEPKcS2_S2_S2_i(ptr noundef nonnull @.str.8, ptr noundef nonnull @.str.9, ptr noundef nonnull @__PRETTY_FUNCTION__._ZZN3gmx8internal14FileStreamImpl6handleEvENKUlvE_clEv, ptr noundef nonnull @.str.2, i32 noundef 135) #23
  unreachable

_ZN3gmx8internal14FileStreamImpl6handleEv.exit:   ; preds = %2
  %7 = tail call fastcc noundef zeroext i1 @_ZN3gmx12_GLOBAL__N_112readLineImplEP8_IO_FILEPNSt7__cxx1112basic_stringIcSt11char_traitsIcESaIcEEE(ptr noundef nonnull %5, ptr noundef %1)
  ret i1 %7
}